target datalayout = "e-m:e-p270:32:32-p271:32:32-p272:64:64-i64:64-i128:128-f80:128-n8:16:32:64-S128"
target triple = "x86_64-pc-linux-gnu"

%"class.icu_77::NFRule" = type { i64, i32, i16, i16, %"class.icu_77::UnicodeString", ptr, ptr, ptr, ptr }
%"class.icu_77::UnicodeString" = type { %"class.icu_77::Replaceable", %"union.icu_77::UnicodeString::StackBufferOrFields" }
%"class.icu_77::Replaceable" = type { %"class.icu_77::UObject" }
%"class.icu_77::UObject" = type { ptr }
%"union.icu_77::UnicodeString::StackBufferOrFields" = type { %struct.anon.0, [32 x i8] }
%struct.anon.0 = type { i16, i32, i32, ptr }

; Function Attrs: mustprogress uwtable
define noundef signext i16 @_ZNK6icu_776NFRule16expectedExponentEv(ptr noundef nonnull align 8 dereferenceable(112) %0) #0 align 2 {
  %2 = alloca i16, align 2
  %3 = alloca ptr, align 8
  %4 = alloca i16, align 2
  %5 = alloca i64, align 8
  store ptr %0, ptr %3, align 8, !tbaa !3
  %6 = load ptr, ptr %3, align 8
  %7 = getelementptr inbounds nuw %"class.icu_77::NFRule", ptr %6, i32 0, i32 1
  %8 = load i32, ptr %7, align 8, !tbaa !24
  %9 = icmp eq i32 %8, 0
  br i1 %9, label %14, label %10

10:                                               ; preds = %1
  %11 = getelementptr inbounds nuw %"class.icu_77::NFRule", ptr %6, i32 0, i32 0
  %12 = load i64, ptr %11, align 8, !tbaa !13
  %13 = icmp slt i64 %12, 1
  br i1 %13, label %14, label %15

14:                                               ; preds = %10, %1
  store i16 0, ptr %2, align 2
  br label %44

15:                                               ; preds = %10
  call void @llvm.lifetime.start.p0(i64 2, ptr %4) #9
  %16 = getelementptr inbounds nuw %"class.icu_77::NFRule", ptr %6, i32 0, i32 0
  %17 = load i64, ptr %16, align 8, !tbaa !13
  %18 = sitofp i64 %17 to double
  %19 = call double @uprv_log_77(double noundef %18)
  %20 = getelementptr inbounds nuw %"class.icu_77::NFRule", ptr %6, i32 0, i32 1
  %21 = load i32, ptr %20, align 8, !tbaa !24
  %22 = sitofp i32 %21 to double
  %23 = call double @uprv_log_77(double noundef %22)
  %24 = fdiv double %19, %23
  %25 = fptosi double %24 to i16
  store i16 %25, ptr %4, align 2, !tbaa !66
  call void @llvm.lifetime.start.p0(i64 8, ptr %5) #9
  %26 = getelementptr inbounds nuw %"class.icu_77::NFRule", ptr %6, i32 0, i32 1
  %27 = load i32, ptr %26, align 8, !tbaa !24
  %28 = load i16, ptr %4, align 2, !tbaa !66
  %29 = sext i16 %28 to i32
  %30 = add nsw i32 %29, 1
  %31 = trunc i32 %30 to i16
  %32 = call noundef i64 @_ZN6icu_7710util64_powEjt(i32 noundef %27, i16 noundef zeroext %31)
  store i64 %32, ptr %5, align 8, !tbaa !36
  %33 = load i64, ptr %5, align 8, !tbaa !36
  %34 = getelementptr inbounds nuw %"class.icu_77::NFRule", ptr %6, i32 0, i32 0
  %35 = load i64, ptr %34, align 8, !tbaa !13
  %36 = icmp sle i64 %33, %35
  br i1 %36, label %37, label %42

37:                                               ; preds = %15
  %38 = load i16, ptr %4, align 2, !tbaa !66
  %39 = sext i16 %38 to i32
  %40 = add nsw i32 %39, 1
  %41 = trunc i32 %40 to i16
  store i16 %41, ptr %4, align 2, !tbaa !66
  br label %42

42:                                               ; preds = %37, %15
  %43 = load i16, ptr %4, align 2, !tbaa !66
  store i16 %43, ptr %2, align 2
  call void @llvm.lifetime.end.p0(i64 8, ptr %5) #9
  call void @llvm.lifetime.end.p0(i64 2, ptr %4) #9
  br label %44

44:                                               ; preds = %42, %14
  %45 = load i16, ptr %2, align 2
  ret i16 %45
}