; Function Attrs: mustprogress uwtable
define noundef signext i16 @_ZNK6icu_776NFRule16expectedExponentEv(ptr noundef nonnull readonly align 8 captures(none) dereferenceable(112) %0) local_unnamed_addr #0 align 2 {
  %2 = getelementptr inbounds nuw i8, ptr %0, i64 8
  %3 = load i32, ptr %2, align 8, !tbaa !18
  %4 = icmp eq i32 %3, 0
  br i1 %4, label %20, label %5

5:                                                ; preds = %1
  %6 = load i64, ptr %0, align 8, !tbaa !3
  %7 = icmp slt i64 %6, 1
  br i1 %7, label %20, label %8

8:                                                ; preds = %5
  %9 = uitofp nneg i64 %6 to double
  %10 = tail call double @uprv_log_77(double noundef %9)
  %11 = load i32, ptr %2, align 8, !tbaa !18
  %12 = sitofp i32 %11 to double
  %13 = tail call double @uprv_log_77(double noundef %12)
  %14 = fdiv double %10, %13
  %15 = fptosi double %14 to i16
  %16 = load i32, ptr %2, align 8, !tbaa !18
  %17 = add i16 %15, 1
  %18 = tail call noundef i64 @_ZN6icu_7710util64_powEjt(i32 noundef %16, i16 noundef zeroext %17)
  %19 = load i64, ptr %0, align 8, !tbaa !3
  %.not = icmp sgt i64 %18, %19
  %spec.select = select i1 %.not, i16 %15, i16 %17
  br label %20

20:                                               ; preds = %1, %5, %8
  %.0 = phi i16 [ %spec.select, %8 ], [ 0, %5 ], [ 0, %1 ]
  ret i16 %.0
}